target datalayout = "e-m:e-p270:32:32-p271:32:32-p272:64:64-i64:64-i128:128-f80:128-n8:16:32:64-S128"
target triple = "x86_64-pc-linux-gnu"

%struct.ReadDirCtx = type { ptr, ptr, %struct.stat, [261 x i8] }
%struct.stat = type { i64, i64, i64, i32, i32, i32, i32, i64, i64, i64, i64, %struct.timespec, %struct.timespec, %struct.timespec, [3 x i64] }
%struct.timespec = type { i64, i64 }

; Function Attrs: nounwind uwtable
define void @wc_ReadDirClose(ptr noundef %0) #0 {
  %2 = alloca ptr, align 8
  store ptr %0, ptr %2, align 8, !tbaa !25
  %3 = load ptr, ptr %2, align 8, !tbaa !25
  %4 = icmp eq ptr %3, null
  br i1 %4, label %5, label %6

5:                                                ; preds = %1
  br label %23

6:                                                ; preds = %1
  %7 = load ptr, ptr %2, align 8, !tbaa !25
  %8 = getelementptr inbounds nuw %struct.ReadDirCtx, ptr %7, i32 0, i32 1
  %9 = load ptr, ptr %8, align 8, !tbaa !27
  %10 = icmp ne ptr %9, null
  br i1 %10, label %11, label %23

11:                                               ; preds = %6
  %12 = load ptr, ptr %2, align 8, !tbaa !25
  %13 = getelementptr inbounds nuw %struct.ReadDirCtx, ptr %12, i32 0, i32 1
  %14 = load ptr, ptr %13, align 8, !tbaa !27
  %15 = call i32 @closedir(ptr noundef %14)
  %16 = icmp slt i32 %15, 0
  br i1 %16, label %17, label %20

17:                                               ; preds = %11
  br label %18

18:                                               ; preds = %17
  br label %19

19:                                               ; preds = %18
  br label %20

20:                                               ; preds = %19, %11
  %21 = load ptr, ptr %2, align 8, !tbaa !25
  %22 = getelementptr inbounds nuw %struct.ReadDirCtx, ptr %21, i32 0, i32 1
  store ptr null, ptr %22, align 8, !tbaa !27
  br label %23

23:                                               ; preds = %5, %20, %6
  ret void
}