; Function Attrs: nofree nounwind uwtable
define void @wc_ReadDirClose(ptr noundef captures(address_is_null) %0) local_unnamed_addr #5 {
  %2 = icmp eq ptr %0, null
  br i1 %2, label %8, label %3

3:                                                ; preds = %1
  %4 = getelementptr inbounds nuw i8, ptr %0, i64 8
  %5 = load ptr, ptr %4, align 8, !tbaa !18
  %.not = icmp eq ptr %5, null
  br i1 %.not, label %8, label %6

6:                                                ; preds = %3
  %7 = tail call i32 @closedir(ptr noundef nonnull %5)
  store ptr null, ptr %4, align 8, !tbaa !18
  br label %8

8:                                                ; preds = %1, %6, %3
  ret void
}